target datalayout = "e-m:e-p270:32:32-p271:32:32-p272:64:64-i64:64-i128:128-f80:128-n8:16:32:64-S128"
target triple = "x86_64-pc-linux-gnu"

%"struct.boost::json::object::table" = type { i32, i32, i64 }
%"class.boost::json::storage_ptr" = type { i64 }
%"class.boost::container::pmr::memory_resource" = type { ptr }
%"class.boost::json::object" = type { %"class.boost::json::storage_ptr", i8, ptr }
%"class.boost::json::pilfered.25" = type { ptr }
%"struct.boost::json::detail::shared_resource" = type { %"class.boost::container::pmr::memory_resource", %"struct.std::atomic.304" }
%"struct.std::atomic.304" = type { %"struct.std::__atomic_base.305" }
%"struct.std::__atomic_base.305" = type { i64 }

@_ZN5boost4json6object6empty_E = global %"struct.boost::json::object::table" zeroinitializer, align 8
@_ZN5boost4json6objectD1Ev = unnamed_addr alias void (ptr), ptr @_ZN5boost4json6objectD2Ev
@_ZN5boost4json6objectC1EOS1_NS0_11storage_ptrE = unnamed_addr alias void (ptr, ptr, ptr), ptr @_ZN5boost4json6objectC2EOS1_NS0_11storage_ptrE

; Function Attrs: mustprogress nounwind uwtable
define linkonce_odr hidden noundef i64 @_ZN5boost4json6detail8exchangeImiEET_RS3_T0_(ptr noundef nonnull align 8 dereferenceable(8) %0, i32 noundef %1) #2 comdat {
  %3 = alloca ptr, align 8
  %4 = alloca i32, align 4
  %5 = alloca i64, align 8
  store ptr %0, ptr %3, align 8, !tbaa !3
  store i32 %1, ptr %4, align 4, !tbaa !7
  call void @llvm.lifetime.start.p0(i64 8, ptr %5) #10
  %6 = load ptr, ptr %3, align 8, !tbaa !3
  %7 = load i64, ptr %6, align 8, !tbaa !16
  store i64 %7, ptr %5, align 8, !tbaa !16
  %8 = load i32, ptr %4, align 4, !tbaa !7
  %9 = sext i32 %8 to i64
  %10 = load ptr, ptr %3, align 8, !tbaa !3
  store i64 %9, ptr %10, align 8, !tbaa !16
  %11 = load i64, ptr %5, align 8, !tbaa !16
  call void @llvm.lifetime.end.p0(i64 8, ptr %5) #10
  ret i64 %11
}

; Function Attrs: alwaysinline mustprogress nounwind uwtable
define linkonce_odr hidden noundef i64 @_ZNSt13__atomic_baseImE9fetch_subEmSt12memory_order(ptr noundef nonnull align 8 dereferenceable(8) %0, i64 noundef %1, i32 noundef %2) #19 comdat align 2 {
  %4 = alloca ptr, align 8
  %5 = alloca i64, align 8
  %6 = alloca i32, align 4
  %7 = alloca i64, align 8
  %8 = alloca i64, align 8
  store ptr %0, ptr %4, align 8, !tbaa !3
  store i64 %1, ptr %5, align 8, !tbaa !16
  store i32 %2, ptr %6, align 4, !tbaa !288
  %9 = load ptr, ptr %4, align 8
  %10 = getelementptr inbounds nuw %"struct.std::__atomic_base.305", ptr %9, i32 0, i32 0
  %11 = load i32, ptr %6, align 4, !tbaa !288
  %12 = load i64, ptr %5, align 8, !tbaa !16
  store i64 %12, ptr %7, align 8, !tbaa !16
  switch i32 %11, label %13 [
    i32 1, label %16
    i32 2, label %16
    i32 3, label %19
    i32 4, label %22
    i32 5, label %25
  ]

13:                                               ; preds = %3
  %14 = load i64, ptr %7, align 8
  %15 = atomicrmw sub ptr %10, i64 %14 monotonic, align 8
  store i64 %15, ptr %8, align 8
  br label %28

16:                                               ; preds = %3, %3
  %17 = load i64, ptr %7, align 8
  %18 = atomicrmw sub ptr %10, i64 %17 acquire, align 8
  store i64 %18, ptr %8, align 8
  br label %28

19:                                               ; preds = %3
  %20 = load i64, ptr %7, align 8
  %21 = atomicrmw sub ptr %10, i64 %20 release, align 8
  store i64 %21, ptr %8, align 8
  br label %28

22:                                               ; preds = %3
  %23 = load i64, ptr %7, align 8
  %24 = atomicrmw sub ptr %10, i64 %23 acq_rel, align 8
  store i64 %24, ptr %8, align 8
  br label %28

25:                                               ; preds = %3
  %26 = load i64, ptr %7, align 8
  %27 = atomicrmw sub ptr %10, i64 %26 seq_cst, align 8
  store i64 %27, ptr %8, align 8
  br label %28

28:                                               ; preds = %25, %22, %19, %16, %13
  %29 = load i64, ptr %8, align 8, !tbaa !16
  ret i64 %29
}

; Function Attrs: alwaysinline mustprogress nounwind uwtable
define linkonce_odr hidden noundef i64 @_ZNSt13__atomic_baseImE9fetch_addEmSt12memory_order(ptr noundef nonnull align 8 dereferenceable(8) %0, i64 noundef %1, i32 noundef %2) #19 comdat align 2 {
  %4 = alloca ptr, align 8
  %5 = alloca i64, align 8
  %6 = alloca i32, align 4
  %7 = alloca i64, align 8
  %8 = alloca i64, align 8
  store ptr %0, ptr %4, align 8, !tbaa !3
  store i64 %1, ptr %5, align 8, !tbaa !16
  store i32 %2, ptr %6, align 4, !tbaa !288
  %9 = load ptr, ptr %4, align 8
  %10 = getelementptr inbounds nuw %"struct.std::__atomic_base.305", ptr %9, i32 0, i32 0
  %11 = load i32, ptr %6, align 4, !tbaa !288
  %12 = load i64, ptr %5, align 8, !tbaa !16
  store i64 %12, ptr %7, align 8, !tbaa !16
  switch i32 %11, label %13 [
    i32 1, label %16
    i32 2, label %16
    i32 3, label %19
    i32 4, label %22
    i32 5, label %25
  ]

13:                                               ; preds = %3
  %14 = load i64, ptr %7, align 8
  %15 = atomicrmw add ptr %10, i64 %14 monotonic, align 8
  store i64 %15, ptr %8, align 8
  br label %28

16:                                               ; preds = %3, %3
  %17 = load i64, ptr %7, align 8
  %18 = atomicrmw add ptr %10, i64 %17 acquire, align 8
  store i64 %18, ptr %8, align 8
  br label %28

19:                                               ; preds = %3
  %20 = load i64, ptr %7, align 8
  %21 = atomicrmw add ptr %10, i64 %20 release, align 8
  store i64 %21, ptr %8, align 8
  br label %28

22:                                               ; preds = %3
  %23 = load i64, ptr %7, align 8
  %24 = atomicrmw add ptr %10, i64 %23 acq_rel, align 8
  store i64 %24, ptr %8, align 8
  br label %28

25:                                               ; preds = %3
  %26 = load i64, ptr %7, align 8
  %27 = atomicrmw add ptr %10, i64 %26 seq_cst, align 8
  store i64 %27, ptr %8, align 8
  br label %28

28:                                               ; preds = %25, %22, %19, %16, %13
  %29 = load i64, ptr %8, align 8, !tbaa !16
  ret i64 %29
}

; Function Attrs: mustprogress nounwind uwtable
define linkonce_odr hidden noundef ptr @_ZNK5boost4json11storage_ptr10get_sharedEv(ptr noundef nonnull align 8 dereferenceable(8) %0) #2 comdat align 2 {
  %2 = alloca ptr, align 8
  store ptr %0, ptr %2, align 8, !tbaa !3
  %3 = load ptr, ptr %2, align 8
  %4 = getelementptr inbounds nuw %"class.boost::json::storage_ptr", ptr %3, i32 0, i32 0
  %5 = load i64, ptr %4, align 8, !tbaa !35
  %6 = and i64 %5, -4
  %7 = inttoptr i64 %6 to ptr
  ret ptr %7
}

; Function Attrs: mustprogress nounwind uwtable
define linkonce_odr hidden noundef zeroext i1 @_ZNK5boost4json11storage_ptr9is_sharedEv(ptr noundef nonnull align 8 dereferenceable(8) %0) #2 comdat align 2 {
  %2 = alloca ptr, align 8
  store ptr %0, ptr %2, align 8, !tbaa !3
  %3 = load ptr, ptr %2, align 8
  %4 = getelementptr inbounds nuw %"class.boost::json::storage_ptr", ptr %3, i32 0, i32 0
  %5 = load i64, ptr %4, align 8, !tbaa !35
  %6 = and i64 %5, 1
  %7 = icmp ne i64 %6, 0
  ret i1 %7
}

; Function Attrs: mustprogress nounwind uwtable
define linkonce_odr hidden noundef ptr @_ZN5boost4json6detail8exchangeIPNS0_6object5tableES5_EET_RS6_T0_(ptr noundef nonnull align 8 dereferenceable(8) %0, ptr noundef %1) #2 comdat {
  %3 = alloca ptr, align 8
  %4 = alloca ptr, align 8
  %5 = alloca ptr, align 8
  store ptr %0, ptr %3, align 8, !tbaa !3
  store ptr %1, ptr %4, align 8, !tbaa !3
  call void @llvm.lifetime.start.p0(i64 8, ptr %5) #10
  %6 = load ptr, ptr %3, align 8, !tbaa !3
  %7 = load ptr, ptr %6, align 8, !tbaa !3
  store ptr %7, ptr %5, align 8, !tbaa !3
  %8 = load ptr, ptr %4, align 8, !tbaa !3
  %9 = load ptr, ptr %3, align 8, !tbaa !3
  store ptr %8, ptr %9, align 8, !tbaa !3
  %10 = load ptr, ptr %5, align 8, !tbaa !3
  call void @llvm.lifetime.end.p0(i64 8, ptr %5) #10
  ret ptr %10
}

; Function Attrs: mustprogress nounwind uwtable
define linkonce_odr hidden void @_ZN5boost4json11storage_ptrC2EOS1_(ptr noundef nonnull align 8 dereferenceable(8) %0, ptr noundef nonnull align 8 dereferenceable(8) %1) unnamed_addr #2 comdat align 2 {
  %3 = alloca ptr, align 8
  %4 = alloca ptr, align 8
  store ptr %0, ptr %3, align 8, !tbaa !3
  store ptr %1, ptr %4, align 8, !tbaa !3
  %5 = load ptr, ptr %3, align 8
  %6 = getelementptr inbounds nuw %"class.boost::json::storage_ptr", ptr %5, i32 0, i32 0
  %7 = load ptr, ptr %4, align 8, !tbaa !3
  %8 = getelementptr inbounds nuw %"class.boost::json::storage_ptr", ptr %7, i32 0, i32 0
  %9 = call noundef i64 @_ZN5boost4json6detail8exchangeImiEET_RS3_T0_(ptr noundef nonnull align 8 dereferenceable(8) %8, i32 noundef 0) #10
  store i64 %9, ptr %6, align 8, !tbaa !35
  ret void
}

; Function Attrs: mustprogress nounwind uwtable
define linkonce_odr hidden noundef nonnull align 8 dereferenceable(24) ptr @_ZNK5boost4json8pilferedINS0_6objectEE3getEv(ptr noundef nonnull align 8 dereferenceable(8) %0) #2 comdat align 2 {
  %2 = alloca ptr, align 8
  store ptr %0, ptr %2, align 8, !tbaa !3
  %3 = load ptr, ptr %2, align 8
  %4 = getelementptr inbounds nuw %"class.boost::json::pilfered.25", ptr %3, i32 0, i32 0
  %5 = load ptr, ptr %4, align 8, !tbaa !304
  ret ptr %5
}

; Function Attrs: mustprogress nounwind uwtable
define linkonce_odr hidden void @_ZN5boost4json8pilferedINS0_6objectEEC2EOS2_(ptr noundef nonnull align 8 dereferenceable(8) %0, ptr noundef nonnull align 8 dereferenceable(24) %1) unnamed_addr #2 comdat align 2 {
  %3 = alloca ptr, align 8
  %4 = alloca ptr, align 8
  store ptr %0, ptr %3, align 8, !tbaa !3
  store ptr %1, ptr %4, align 8, !tbaa !3
  %5 = load ptr, ptr %3, align 8
  %6 = getelementptr inbounds nuw %"class.boost::json::pilfered.25", ptr %5, i32 0, i32 0
  %7 = load ptr, ptr %4, align 8, !tbaa !3
  store ptr %7, ptr %6, align 8, !tbaa !3
  ret void
}

; Function Attrs: mustprogress nounwind uwtable
define linkonce_odr hidden void @_ZNK5boost4json11storage_ptr7releaseEv(ptr noundef nonnull align 8 dereferenceable(8) %0) #2 comdat align 2 {
  %2 = alloca ptr, align 8
  %3 = alloca ptr, align 8
  store ptr %0, ptr %2, align 8, !tbaa !3
  %4 = load ptr, ptr %2, align 8
  %5 = call noundef zeroext i1 @_ZNK5boost4json11storage_ptr9is_sharedEv(ptr noundef nonnull align 8 dereferenceable(8) %4) #10
  br i1 %5, label %6, label %21

6:                                                ; preds = %1
  call void @llvm.lifetime.start.p0(i64 8, ptr %3) #10
  %7 = call noundef ptr @_ZNK5boost4json11storage_ptr10get_sharedEv(ptr noundef nonnull align 8 dereferenceable(8) %4) #10
  store ptr %7, ptr %3, align 8, !tbaa !3
  %8 = load ptr, ptr %3, align 8, !tbaa !3
  %9 = getelementptr inbounds nuw %"struct.boost::json::detail::shared_resource", ptr %8, i32 0, i32 1
  %10 = call noundef i64 @_ZNSt13__atomic_baseImE9fetch_subEmSt12memory_order(ptr noundef nonnull align 8 dereferenceable(8) %9, i64 noundef 1, i32 noundef 4) #10
  %11 = icmp eq i64 %10, 1
  br i1 %11, label %12, label %20

12:                                               ; preds = %6
  %13 = load ptr, ptr %3, align 8, !tbaa !3
  %14 = icmp eq ptr %13, null
  br i1 %14, label %19, label %15

15:                                               ; preds = %12
  %16 = load ptr, ptr %13, align 8, !tbaa !14
  %17 = getelementptr inbounds ptr, ptr %16, i64 1
  %18 = load ptr, ptr %17, align 8
  call void %18(ptr noundef nonnull align 8 dereferenceable(16) %13) #10
  br label %19

19:                                               ; preds = %15, %12
  br label %20

20:                                               ; preds = %19, %6
  call void @llvm.lifetime.end.p0(i64 8, ptr %3) #10
  br label %21

21:                                               ; preds = %20, %1
  ret void
}

; Function Attrs: mustprogress nounwind uwtable
define linkonce_odr hidden void @_ZNK5boost4json11storage_ptr6addrefEv(ptr noundef nonnull align 8 dereferenceable(8) %0) #2 comdat align 2 {
  %2 = alloca ptr, align 8
  store ptr %0, ptr %2, align 8, !tbaa !3
  %3 = load ptr, ptr %2, align 8
  %4 = call noundef zeroext i1 @_ZNK5boost4json11storage_ptr9is_sharedEv(ptr noundef nonnull align 8 dereferenceable(8) %3) #10
  br i1 %4, label %5, label %9

5:                                                ; preds = %1
  %6 = call noundef ptr @_ZNK5boost4json11storage_ptr10get_sharedEv(ptr noundef nonnull align 8 dereferenceable(8) %3) #10
  %7 = getelementptr inbounds nuw %"struct.boost::json::detail::shared_resource", ptr %6, i32 0, i32 1
  %8 = call noundef i64 @_ZNSt13__atomic_baseImE9fetch_addEmSt12memory_order(ptr noundef nonnull align 8 dereferenceable(8) %7, i64 noundef 1, i32 noundef 0) #10
  br label %9

9:                                                ; preds = %5, %1
  ret void
}

; Function Attrs: mustprogress nounwind uwtable
define linkonce_odr hidden void @_ZN5boost4json6objectC2ENS0_8pilferedIS1_EE(ptr noundef nonnull align 8 dereferenceable(24) %0, ptr %1) unnamed_addr #2 comdat align 2 {
  %3 = alloca %"class.boost::json::pilfered.25", align 8
  %4 = alloca ptr, align 8
  %5 = getelementptr inbounds nuw %"class.boost::json::pilfered.25", ptr %3, i32 0, i32 0
  store ptr %1, ptr %5, align 8
  store ptr %0, ptr %4, align 8, !tbaa !3
  %6 = load ptr, ptr %4, align 8
  %7 = getelementptr inbounds nuw %"class.boost::json::object", ptr %6, i32 0, i32 0
  %8 = call noundef nonnull align 8 dereferenceable(24) ptr @_ZNK5boost4json8pilferedINS0_6objectEE3getEv(ptr noundef nonnull align 8 dereferenceable(8) %3) #10
  %9 = getelementptr inbounds nuw %"class.boost::json::object", ptr %8, i32 0, i32 0
  call void @_ZN5boost4json11storage_ptrC2EOS1_(ptr noundef nonnull align 8 dereferenceable(8) %7, ptr noundef nonnull align 8 dereferenceable(8) %9) #10
  %10 = getelementptr inbounds nuw %"class.boost::json::object", ptr %6, i32 0, i32 1
  store i8 7, ptr %10, align 8, !tbaa !108
  %11 = getelementptr inbounds nuw %"class.boost::json::object", ptr %6, i32 0, i32 2
  %12 = call noundef nonnull align 8 dereferenceable(24) ptr @_ZNK5boost4json8pilferedINS0_6objectEE3getEv(ptr noundef nonnull align 8 dereferenceable(8) %3) #10
  %13 = getelementptr inbounds nuw %"class.boost::json::object", ptr %12, i32 0, i32 2
  %14 = call noundef ptr @_ZN5boost4json6detail8exchangeIPNS0_6object5tableES5_EET_RS6_T0_(ptr noundef nonnull align 8 dereferenceable(8) %13, ptr noundef @_ZN5boost4json6object6empty_E) #10
  store ptr %14, ptr %11, align 8, !tbaa !84
  ret void
}

; Function Attrs: mustprogress nounwind uwtable
define linkonce_odr hidden ptr @_ZN5boost4json6pilferIRNS0_6objectEEENSt11conditionalIXaasr3std24is_nothrow_constructibleINSt16remove_referenceIT_E4typeENS0_8pilferedIS8_EEEE5valuentsr3std24is_nothrow_constructibleIS8_NS0_13detail_pilfer12not_pilferedIS8_EEEE5valueESA_OS8_E4typeEOS6_(ptr noundef nonnull align 8 dereferenceable(24) %0) #2 comdat {
  %2 = alloca %"class.boost::json::pilfered.25", align 8
  %3 = alloca ptr, align 8
  store ptr %0, ptr %3, align 8, !tbaa !3
  %4 = load ptr, ptr %3, align 8, !tbaa !3
  call void @_ZN5boost4json8pilferedINS0_6objectEEC2EOS2_(ptr noundef nonnull align 8 dereferenceable(8) %2, ptr noundef nonnull align 8 dereferenceable(24) %4) #10
  %5 = getelementptr inbounds nuw %"class.boost::json::pilfered.25", ptr %2, i32 0, i32 0
  %6 = load ptr, ptr %5, align 8
  ret ptr %6
}

; Function Attrs: mustprogress nounwind uwtable
define linkonce_odr hidden void @_ZN5boost4json11storage_ptrD2Ev(ptr noundef nonnull align 8 dereferenceable(8) %0) unnamed_addr #2 comdat align 2 {
  %2 = alloca ptr, align 8
  store ptr %0, ptr %2, align 8, !tbaa !3
  %3 = load ptr, ptr %2, align 8
  call void @_ZNK5boost4json11storage_ptr7releaseEv(ptr noundef nonnull align 8 dereferenceable(8) %3) #10
  ret void
}

; Function Attrs: mustprogress nounwind uwtable
define linkonce_odr hidden void @_ZN5boost4json11storage_ptrC2ERKS1_(ptr noundef nonnull align 8 dereferenceable(8) %0, ptr noundef nonnull align 8 dereferenceable(8) %1) unnamed_addr #2 comdat align 2 {
  %3 = alloca ptr, align 8
  %4 = alloca ptr, align 8
  store ptr %0, ptr %3, align 8, !tbaa !3
  store ptr %1, ptr %4, align 8, !tbaa !3
  %5 = load ptr, ptr %3, align 8
  %6 = getelementptr inbounds nuw %"class.boost::json::storage_ptr", ptr %5, i32 0, i32 0
  %7 = load ptr, ptr %4, align 8, !tbaa !3
  %8 = getelementptr inbounds nuw %"class.boost::json::storage_ptr", ptr %7, i32 0, i32 0
  %9 = load i64, ptr %8, align 8, !tbaa !35
  store i64 %9, ptr %6, align 8, !tbaa !35
  call void @_ZNK5boost4json11storage_ptr6addrefEv(ptr noundef nonnull align 8 dereferenceable(8) %5) #10
  ret void
}

; Function Attrs: mustprogress uwtable
define noundef nonnull align 8 dereferenceable(24) ptr @_ZN5boost4json6objectaSEOS1_(ptr noundef nonnull align 8 dereferenceable(24) %0, ptr noundef nonnull align 8 dereferenceable(24) %1) #5 align 2 personality ptr @__gxx_personality_v0 {
  %3 = alloca ptr, align 8
  %4 = alloca ptr, align 8
  %5 = alloca %"class.boost::json::object", align 8
  %6 = alloca %"class.boost::json::storage_ptr", align 8
  %7 = alloca ptr, align 8
  %8 = alloca i32, align 4
  %9 = alloca %"class.boost::json::pilfered.25", align 8
  store ptr %0, ptr %3, align 8, !tbaa !3
  store ptr %1, ptr %4, align 8, !tbaa !3
  %10 = load ptr, ptr %3, align 8
  call void @llvm.lifetime.start.p0(i64 24, ptr %5) #10
  %11 = load ptr, ptr %4, align 8, !tbaa !3
  %12 = getelementptr inbounds nuw %"class.boost::json::object", ptr %10, i32 0, i32 0
  call void @_ZN5boost4json11storage_ptrC2ERKS1_(ptr noundef nonnull align 8 dereferenceable(8) %6, ptr noundef nonnull align 8 dereferenceable(8) %12) #10
  invoke void @_ZN5boost4json6objectC1EOS1_NS0_11storage_ptrE(ptr noundef nonnull align 8 dereferenceable(24) %5, ptr noundef nonnull align 8 dereferenceable(24) %11, ptr noundef %6)
          to label %13 unwind label %18

13:                                               ; preds = %2
  call void @_ZN5boost4json11storage_ptrD2Ev(ptr noundef nonnull align 8 dereferenceable(8) %6) #10
  call void @_ZN5boost4json6objectD1Ev(ptr noundef nonnull align 8 dereferenceable(24) %10) #10
  %14 = call ptr @_ZN5boost4json6pilferIRNS0_6objectEEENSt11conditionalIXaasr3std24is_nothrow_constructibleINSt16remove_referenceIT_E4typeENS0_8pilferedIS8_EEEE5valuentsr3std24is_nothrow_constructibleIS8_NS0_13detail_pilfer12not_pilferedIS8_EEEE5valueESA_OS8_E4typeEOS6_(ptr noundef nonnull align 8 dereferenceable(24) %5) #10
  %15 = getelementptr inbounds nuw %"class.boost::json::pilfered.25", ptr %9, i32 0, i32 0
  store ptr %14, ptr %15, align 8
  %16 = getelementptr inbounds nuw %"class.boost::json::pilfered.25", ptr %9, i32 0, i32 0
  %17 = load ptr, ptr %16, align 8
  call void @_ZN5boost4json6objectC2ENS0_8pilferedIS1_EE(ptr noundef nonnull align 8 dereferenceable(24) %10, ptr %17) #10
  call void @_ZN5boost4json6objectD1Ev(ptr noundef nonnull align 8 dereferenceable(24) %5) #10
  call void @llvm.lifetime.end.p0(i64 24, ptr %5) #10
  ret ptr %10

18:                                               ; preds = %2
  %19 = landingpad { ptr, i32 }
          cleanup
  %20 = extractvalue { ptr, i32 } %19, 0
  store ptr %20, ptr %7, align 8
  %21 = extractvalue { ptr, i32 } %19, 1
  store i32 %21, ptr %8, align 4
  call void @_ZN5boost4json11storage_ptrD2Ev(ptr noundef nonnull align 8 dereferenceable(8) %6) #10
  call void @llvm.lifetime.end.p0(i64 24, ptr %5) #10
  br label %22

22:                                               ; preds = %18
  %23 = load ptr, ptr %7, align 8
  %24 = load i32, ptr %8, align 4
  %25 = insertvalue { ptr, i32 } poison, ptr %23, 0
  %26 = insertvalue { ptr, i32 } %25, i32 %24, 1
  resume { ptr, i32 } %26
}