; Function Attrs: mustprogress uwtable
define noundef nonnull align 8 dereferenceable(24) ptr @_ZN5boost4json6objectaSEOS1_(ptr noundef nonnull returned align 8 dereferenceable(24) %0, ptr noundef nonnull align 8 dereferenceable(24) %1) local_unnamed_addr #5 align 2 personality ptr @__gxx_personality_v0 {
  %3 = alloca %"class.boost::json::object", align 8
  %4 = alloca %"class.boost::json::storage_ptr", align 8
  call void @llvm.lifetime.start.p0(i64 24, ptr nonnull %3) #48
  %5 = load i64, ptr %0, align 8, !tbaa !17
  store i64 %5, ptr %4, align 8, !tbaa !17
  %6 = and i64 %5, 1
  %.not.i.i = icmp eq i64 %6, 0
  br i1 %.not.i.i, label %_ZN5boost4json11storage_ptrC2ERKS1_.exit, label %7

7:                                                ; preds = %2
  %8 = and i64 %5, -4
  %9 = inttoptr i64 %8 to ptr
  %10 = getelementptr inbounds nuw i8, ptr %9, i64 8
  %11 = atomicrmw add ptr %10, i64 1 monotonic, align 8
  br label %_ZN5boost4json11storage_ptrC2ERKS1_.exit

_ZN5boost4json11storage_ptrC2ERKS1_.exit:         ; preds = %2, %7
  invoke void @_ZN5boost4json6objectC1EOS1_NS0_11storage_ptrE(ptr noundef nonnull align 8 dereferenceable(24) %3, ptr noundef nonnull align 8 dereferenceable(24) %1, ptr noundef nonnull %4)
          to label %12 unwind label %31

12:                                               ; preds = %_ZN5boost4json11storage_ptrC2ERKS1_.exit
  %13 = load i64, ptr %4, align 8, !tbaa !17
  %14 = and i64 %13, 1
  %.not.i.i3 = icmp eq i64 %14, 0
  br i1 %.not.i.i3, label %_ZN5boost4json11storage_ptrD2Ev.exit, label %15

15:                                               ; preds = %12
  %16 = and i64 %13, -4
  %17 = inttoptr i64 %16 to ptr
  %18 = getelementptr inbounds nuw i8, ptr %17, i64 8
  %19 = atomicrmw sub ptr %18, i64 1 acq_rel, align 8
  %20 = icmp ne i64 %19, 1
  %21 = icmp eq i64 %16, 0
  %or.cond.i.i = or i1 %21, %20
  br i1 %or.cond.i.i, label %_ZN5boost4json11storage_ptrD2Ev.exit, label %22

22:                                               ; preds = %15
  %23 = load ptr, ptr %17, align 8, !tbaa !19
  %24 = getelementptr inbounds i8, ptr %23, i64 8
  %25 = load ptr, ptr %24, align 8
  call void %25(ptr noundef nonnull align 8 dereferenceable(16) %17) #48
  br label %_ZN5boost4json11storage_ptrD2Ev.exit

_ZN5boost4json11storage_ptrD2Ev.exit:             ; preds = %12, %15, %22
  call void @_ZN5boost4json6objectD1Ev(ptr noundef nonnull align 8 dereferenceable(24) %0) #48
  %26 = load i64, ptr %3, align 8, !tbaa !11
  store i64 0, ptr %3, align 8, !tbaa !11
  store i64 %26, ptr %0, align 8, !tbaa !17
  %27 = getelementptr inbounds nuw i8, ptr %0, i64 8
  store i8 7, ptr %27, align 8, !tbaa !123
  %28 = getelementptr inbounds nuw i8, ptr %0, i64 16
  %29 = getelementptr inbounds nuw i8, ptr %3, i64 16
  %30 = load ptr, ptr %29, align 8, !tbaa !42
  store ptr @_ZN5boost4json6object6empty_E, ptr %29, align 8, !tbaa !42
  store ptr %30, ptr %28, align 8, !tbaa !102
  call void @_ZN5boost4json6objectD1Ev(ptr noundef nonnull align 8 dereferenceable(24) %3) #48
  call void @llvm.lifetime.end.p0(i64 24, ptr nonnull %3) #48
  ret ptr %0

31:                                               ; preds = %_ZN5boost4json11storage_ptrC2ERKS1_.exit
  %32 = landingpad { ptr, i32 }
          cleanup
  %33 = load i64, ptr %4, align 8, !tbaa !17
  %34 = and i64 %33, 1
  %.not.i.i4 = icmp eq i64 %34, 0
  br i1 %.not.i.i4, label %_ZN5boost4json11storage_ptrD2Ev.exit6, label %35

35:                                               ; preds = %31
  %36 = and i64 %33, -4
  %37 = inttoptr i64 %36 to ptr
  %38 = getelementptr inbounds nuw i8, ptr %37, i64 8
  %39 = atomicrmw sub ptr %38, i64 1 acq_rel, align 8
  %40 = icmp ne i64 %39, 1
  %41 = icmp eq i64 %36, 0
  %or.cond.i.i5 = or i1 %41, %40
  br i1 %or.cond.i.i5, label %_ZN5boost4json11storage_ptrD2Ev.exit6, label %42

42:                                               ; preds = %35
  %43 = load ptr, ptr %37, align 8, !tbaa !19
  %44 = getelementptr inbounds i8, ptr %43, i64 8
  %45 = load ptr, ptr %44, align 8
  call void %45(ptr noundef nonnull align 8 dereferenceable(16) %37) #48
  br label %_ZN5boost4json11storage_ptrD2Ev.exit6

_ZN5boost4json11storage_ptrD2Ev.exit6:            ; preds = %31, %35, %42
  call void @llvm.lifetime.end.p0(i64 24, ptr nonnull %3) #48
  resume { ptr, i32 } %32
}